; Function Attrs: nounwind sspstrong uwtable
define internal i64 @sockopt_s_int(i64 %0, i64 noundef %1, i64 noundef %2, i64 noundef %3, i64 noundef %4) #0 {
  %6 = alloca i64, align 8
  %7 = alloca i32, align 4
  %8 = tail call i32 @rsock_family_arg(i64 noundef %1) #6
  %9 = tail call i32 @rsock_level_arg(i32 noundef %8, i64 noundef %2) #6
  %10 = tail call i32 @rsock_optname_arg(i32 noundef %8, i32 noundef %9, i64 noundef %3) #6
  call void @llvm.lifetime.start.p0(i64 4, ptr nonnull %7) #6
  %11 = tail call i64 @rb_to_int(i64 noundef %4) #6
  %12 = and i64 %11, 1
  %.not.i.i = icmp eq i64 %12, 0
  br i1 %.not.i.i, label %15, label %13

13:                                               ; preds = %5
  %14 = tail call i64 @rb_fix2int(i64 noundef %11) #6
  br label %sockopt_pack_int.exit

15:                                               ; preds = %5
  %16 = tail call i64 @rb_num2int(i64 noundef %11) #6
  br label %sockopt_pack_int.exit

sockopt_pack_int.exit:                            ; preds = %13, %15
  %.0.i.i = phi i64 [ %14, %13 ], [ %16, %15 ]
  %17 = trunc i64 %.0.i.i to i32
  store i32 %17, ptr %7, align 4, !tbaa !77
  %18 = call i64 @rb_str_new(ptr noundef nonnull %7, i64 noundef 4) #6
  call void @llvm.lifetime.end.p0(i64 4, ptr nonnull %7) #6
  call void @llvm.lifetime.start.p0(i64 8, ptr nonnull %6)
  store i64 %18, ptr %6, align 8, !tbaa !6
  %19 = load i64, ptr @rb_cSockOpt, align 8, !tbaa !6
  %20 = call i64 @rb_obj_alloc(i64 noundef %19) #6
  %21 = call i64 @rb_string_value(ptr noundef nonnull %6) #6
  %22 = sext i32 %8 to i64
  %23 = shl nsw i64 %22, 1
  %24 = or disjoint i64 %23, 1
  %25 = sext i32 %9 to i64
  %26 = shl nsw i64 %25, 1
  %27 = or disjoint i64 %26, 1
  %28 = sext i32 %10 to i64
  %29 = shl nsw i64 %28, 1
  %30 = or disjoint i64 %29, 1
  %31 = load i64, ptr %6, align 8, !tbaa !6
  %32 = call i64 @sockopt_initialize(i64 noundef %20, i64 noundef %24, i64 noundef %27, i64 noundef %30, i64 noundef %31)
  call void @llvm.lifetime.end.p0(i64 8, ptr nonnull %6)
  ret i64 %20
}